target datalayout = "e-m:e-p270:32:32-p271:32:32-p272:64:64-i64:64-i128:128-f80:128-n8:16:32:64-S128"
target triple = "x86_64-pc-linux-gnu"

%union.anon = type { i64 }
%struct.global_tevent_register_st = type { ptr, ptr }

@destructor_key = internal global %union.anon { i64 -1 }, align 8
@.str = private unnamed_addr constant [31 x i8] c"../openssl/crypto/initthread.c\00", align 1
@tevent_register_runonce = internal global i32 0, align 4
@create_global_tevent_register_ossl_ret_ = internal global i32 0, align 4
@glob_tevent_reg = internal global ptr null, align 8

; Function Attrs: inlinehint nounwind uwtable
define internal i32 @sk_THREAD_EVENT_HANDLER_PTR_push(ptr noundef %0, ptr noundef %1) #3 {
  %3 = alloca ptr, align 8
  %4 = alloca ptr, align 8
  store ptr %0, ptr %3, align 8, !tbaa !34
  store ptr %1, ptr %4, align 8, !tbaa !16
  %5 = load ptr, ptr %3, align 8, !tbaa !34
  %6 = load ptr, ptr %4, align 8, !tbaa !16
  %7 = call i32 @OPENSSL_sk_push(ptr noundef %5, ptr noundef %6)
  ret i32 %7
}

; Function Attrs: nounwind uwtable
define internal ptr @get_global_tevent_register() #0 {
  %1 = alloca ptr, align 8
  %2 = call i32 @CRYPTO_THREAD_run_once(ptr noundef @tevent_register_runonce, ptr noundef @create_global_tevent_register_ossl_)
  %3 = icmp ne i32 %2, 0
  br i1 %3, label %4, label %7

4:                                                ; preds = %0
  %5 = load i32, ptr @create_global_tevent_register_ossl_ret_, align 4, !tbaa !8
  %6 = icmp ne i32 %5, 0
  br i1 %6, label %9, label %8

7:                                                ; preds = %0
  br i1 false, label %9, label %8

8:                                                ; preds = %7, %4
  store ptr null, ptr %1, align 8
  br label %11

9:                                                ; preds = %7, %4
  %10 = load ptr, ptr @glob_tevent_reg, align 8, !tbaa !10
  store ptr %10, ptr %1, align 8
  br label %11

11:                                               ; preds = %9, %8
  %12 = load ptr, ptr %1, align 8
  ret ptr %12
}

; Function Attrs: nounwind uwtable
define internal i32 @init_thread_push_handlers(ptr noundef %0) #0 {
  %2 = alloca i32, align 4
  %3 = alloca ptr, align 8
  %4 = alloca i32, align 4
  %5 = alloca ptr, align 8
  %6 = alloca i32, align 4
  store ptr %0, ptr %3, align 8, !tbaa !16
  call void @llvm.lifetime.start.p0(i64 4, ptr %4) #4
  call void @llvm.lifetime.start.p0(i64 8, ptr %5) #4
  %7 = call ptr @get_global_tevent_register()
  store ptr %7, ptr %5, align 8, !tbaa !10
  %8 = load ptr, ptr %5, align 8, !tbaa !10
  %9 = icmp eq ptr %8, null
  br i1 %9, label %10, label %11

10:                                               ; preds = %1
  store i32 0, ptr %2, align 4
  store i32 1, ptr %6, align 4
  br label %31

11:                                               ; preds = %1
  %12 = load ptr, ptr %5, align 8, !tbaa !10
  %13 = getelementptr inbounds nuw %struct.global_tevent_register_st, ptr %12, i32 0, i32 1
  %14 = load ptr, ptr %13, align 8, !tbaa !12
  %15 = call i32 @CRYPTO_THREAD_write_lock(ptr noundef %14)
  %16 = icmp ne i32 %15, 0
  br i1 %16, label %18, label %17

17:                                               ; preds = %11
  store i32 0, ptr %2, align 4
  store i32 1, ptr %6, align 4
  br label %31

18:                                               ; preds = %11
  %19 = load ptr, ptr %5, align 8, !tbaa !10
  %20 = getelementptr inbounds nuw %struct.global_tevent_register_st, ptr %19, i32 0, i32 0
  %21 = load ptr, ptr %20, align 8, !tbaa !15
  %22 = load ptr, ptr %3, align 8, !tbaa !16
  %23 = call i32 @sk_THREAD_EVENT_HANDLER_PTR_push(ptr noundef %21, ptr noundef %22)
  %24 = icmp ne i32 %23, 0
  %25 = zext i1 %24 to i32
  store i32 %25, ptr %4, align 4, !tbaa !8
  %26 = load ptr, ptr %5, align 8, !tbaa !10
  %27 = getelementptr inbounds nuw %struct.global_tevent_register_st, ptr %26, i32 0, i32 1
  %28 = load ptr, ptr %27, align 8, !tbaa !12
  %29 = call i32 @CRYPTO_THREAD_unlock(ptr noundef %28)
  %30 = load i32, ptr %4, align 4, !tbaa !8
  store i32 %30, ptr %2, align 4
  store i32 1, ptr %6, align 4
  br label %31

31:                                               ; preds = %18, %17, %10
  call void @llvm.lifetime.end.p0(i64 8, ptr %5) #4
  call void @llvm.lifetime.end.p0(i64 4, ptr %4) #4
  %32 = load i32, ptr %2, align 4
  ret i32 %32
}

; Function Attrs: nounwind uwtable
define internal ptr @init_get_thread_local(ptr noundef %0, i32 noundef %1, i32 noundef %2) #0 {
  %4 = alloca ptr, align 8
  %5 = alloca ptr, align 8
  %6 = alloca i32, align 4
  %7 = alloca i32, align 4
  %8 = alloca ptr, align 8
  %9 = alloca i32, align 4
  store ptr %0, ptr %5, align 8, !tbaa !28
  store i32 %1, ptr %6, align 4, !tbaa !8
  store i32 %2, ptr %7, align 4, !tbaa !8
  call void @llvm.lifetime.start.p0(i64 8, ptr %8) #4
  %10 = load ptr, ptr %5, align 8, !tbaa !28
  %11 = call ptr @CRYPTO_THREAD_get_local(ptr noundef %10)
  store ptr %11, ptr %8, align 8, !tbaa !16
  %12 = load i32, ptr %6, align 4, !tbaa !8
  %13 = icmp ne i32 %12, 0
  br i1 %13, label %14, label %38

14:                                               ; preds = %3
  %15 = load ptr, ptr %8, align 8, !tbaa !16
  %16 = icmp eq ptr %15, null
  br i1 %16, label %17, label %37

17:                                               ; preds = %14
  %18 = call noalias ptr @CRYPTO_zalloc(i64 noundef 8, ptr noundef @.str, i32 noundef 101)
  store ptr %18, ptr %8, align 8, !tbaa !16
  %19 = icmp eq ptr %18, null
  br i1 %19, label %20, label %21

20:                                               ; preds = %17
  store ptr null, ptr %4, align 8
  store i32 1, ptr %9, align 4
  br label %47

21:                                               ; preds = %17
  %22 = load ptr, ptr %5, align 8, !tbaa !28
  %23 = load ptr, ptr %8, align 8, !tbaa !16
  %24 = call i32 @CRYPTO_THREAD_set_local(ptr noundef %22, ptr noundef %23)
  %25 = icmp ne i32 %24, 0
  br i1 %25, label %28, label %26

26:                                               ; preds = %21
  %27 = load ptr, ptr %8, align 8, !tbaa !16
  call void @CRYPTO_free(ptr noundef %27, ptr noundef @.str, i32 noundef 105)
  store ptr null, ptr %4, align 8
  store i32 1, ptr %9, align 4
  br label %47

28:                                               ; preds = %21
  %29 = load ptr, ptr %8, align 8, !tbaa !16
  %30 = call i32 @init_thread_push_handlers(ptr noundef %29)
  %31 = icmp ne i32 %30, 0
  br i1 %31, label %36, label %32

32:                                               ; preds = %28
  %33 = load ptr, ptr %5, align 8, !tbaa !28
  %34 = call i32 @CRYPTO_THREAD_set_local(ptr noundef %33, ptr noundef null)
  %35 = load ptr, ptr %8, align 8, !tbaa !16
  call void @CRYPTO_free(ptr noundef %35, ptr noundef @.str, i32 noundef 112)
  store ptr null, ptr %4, align 8
  store i32 1, ptr %9, align 4
  br label %47

36:                                               ; preds = %28
  br label %37

37:                                               ; preds = %36, %14
  br label %45

38:                                               ; preds = %3
  %39 = load i32, ptr %7, align 4, !tbaa !8
  %40 = icmp ne i32 %39, 0
  br i1 %40, label %44, label %41

41:                                               ; preds = %38
  %42 = load ptr, ptr %5, align 8, !tbaa !28
  %43 = call i32 @CRYPTO_THREAD_set_local(ptr noundef %42, ptr noundef null)
  br label %44

44:                                               ; preds = %41, %38
  br label %45

45:                                               ; preds = %44, %37
  %46 = load ptr, ptr %8, align 8, !tbaa !16
  store ptr %46, ptr %4, align 8
  store i32 1, ptr %9, align 4
  br label %47

47:                                               ; preds = %45, %32, %26, %20
  call void @llvm.lifetime.end.p0(i64 8, ptr %8) #4
  %48 = load ptr, ptr %4, align 8
  ret ptr %48
}

; Function Attrs: nounwind uwtable
define void @ossl_ctx_thread_stop(ptr noundef %0) #0 {
  %2 = alloca ptr, align 8
  %3 = alloca ptr, align 8
  store ptr %0, ptr %2, align 8, !tbaa !26
  %4 = load i64, ptr @destructor_key, align 8, !tbaa !7
  %5 = icmp ne i64 %4, -1
  br i1 %5, label %6, label %10

6:                                                ; preds = %1
  call void @llvm.lifetime.start.p0(i64 8, ptr %3) #4
  %7 = call ptr @init_get_thread_local(ptr noundef @destructor_key, i32 noundef 0, i32 noundef 1)
  store ptr %7, ptr %3, align 8, !tbaa !16
  %8 = load ptr, ptr %2, align 8, !tbaa !26
  %9 = load ptr, ptr %3, align 8, !tbaa !16
  call void @init_thread_stop(ptr noundef %8, ptr noundef %9)
  call void @llvm.lifetime.end.p0(i64 8, ptr %3) #4
  br label %10

10:                                               ; preds = %6, %1
  ret void
}