; Function Attrs: nounwind uwtable
define void @ossl_ctx_thread_stop(ptr noundef captures(address) %0) local_unnamed_addr #0 {
  %2 = load i64, ptr @destructor_key, align 8, !tbaa !17
  %.not = icmp eq i64 %2, -1
  br i1 %.not, label %5, label %3

3:                                                ; preds = %1
  %4 = tail call ptr @CRYPTO_THREAD_get_local(ptr noundef nonnull @destructor_key) #2
  tail call fastcc void @init_thread_stop(ptr noundef %0, ptr noundef %4)
  br label %5

5:                                                ; preds = %3, %1
  ret void
}